target datalayout = "e-m:e-p270:32:32-p271:32:32-p272:64:64-i64:64-i128:128-f80:128-n8:16:32:64-S128"
target triple = "x86_64-pc-linux-gnu"

%struct.UserData = type { i64, double, double, double, double, double }

@.str.30 = private unnamed_addr constant [19 x i8] c"N_VGetArrayPointer\00", align 1
@stderr = external global ptr, align 8
@.str.31 = private unnamed_addr constant [55 x i8] c"\0ASUNDIALS_ERROR: %s() failed - returned NULL pointer\0A\0A\00", align 1
@.str.32 = private unnamed_addr constant [46 x i8] c"\0ASUNDIALS_ERROR: %s() failed with flag = %d\0A\0A\00", align 1
@.str.33 = private unnamed_addr constant [53 x i8] c"\0AMEMORY_ERROR: %s() failed - returned NULL pointer\0A\0A\00", align 1

; Function Attrs: nounwind uwtable
define internal i32 @check_flag(ptr noundef %0, ptr noundef %1, i32 noundef %2) #0 {
  %4 = alloca i32, align 4
  %5 = alloca ptr, align 8
  %6 = alloca ptr, align 8
  %7 = alloca i32, align 4
  %8 = alloca ptr, align 8
  %9 = alloca i32, align 4
  store ptr %0, ptr %5, align 8, !tbaa !24
  store ptr %1, ptr %6, align 8, !tbaa !33
  store i32 %2, ptr %7, align 4, !tbaa !17
  call void @llvm.lifetime.start.p0(i64 8, ptr %8) #5
  %10 = load i32, ptr %7, align 4, !tbaa !17
  %11 = icmp eq i32 %10, 0
  br i1 %11, label %12, label %19

12:                                               ; preds = %3
  %13 = load ptr, ptr %5, align 8, !tbaa !24
  %14 = icmp eq ptr %13, null
  br i1 %14, label %15, label %19

15:                                               ; preds = %12
  %16 = load ptr, ptr @stderr, align 8, !tbaa !31
  %17 = load ptr, ptr %6, align 8, !tbaa !33
  %18 = call i32 (ptr, ptr, ...) @fprintf(ptr noundef %16, ptr noundef @.str.31, ptr noundef %17) #5
  store i32 1, ptr %4, align 4
  store i32 1, ptr %9, align 4
  br label %47

19:                                               ; preds = %12, %3
  %20 = load i32, ptr %7, align 4, !tbaa !17
  %21 = icmp eq i32 %20, 1
  br i1 %21, label %22, label %34

22:                                               ; preds = %19
  %23 = load ptr, ptr %5, align 8, !tbaa !24
  store ptr %23, ptr %8, align 8, !tbaa !35
  %24 = load ptr, ptr %8, align 8, !tbaa !35
  %25 = load i32, ptr %24, align 4, !tbaa !17
  %26 = icmp slt i32 %25, 0
  br i1 %26, label %27, label %33

27:                                               ; preds = %22
  %28 = load ptr, ptr @stderr, align 8, !tbaa !31
  %29 = load ptr, ptr %6, align 8, !tbaa !33
  %30 = load ptr, ptr %8, align 8, !tbaa !35
  %31 = load i32, ptr %30, align 4, !tbaa !17
  %32 = call i32 (ptr, ptr, ...) @fprintf(ptr noundef %28, ptr noundef @.str.32, ptr noundef %29, i32 noundef %31) #5
  store i32 1, ptr %4, align 4
  store i32 1, ptr %9, align 4
  br label %47

33:                                               ; preds = %22
  br label %45

34:                                               ; preds = %19
  %35 = load i32, ptr %7, align 4, !tbaa !17
  %36 = icmp eq i32 %35, 2
  br i1 %36, label %37, label %44

37:                                               ; preds = %34
  %38 = load ptr, ptr %5, align 8, !tbaa !24
  %39 = icmp eq ptr %38, null
  br i1 %39, label %40, label %44

40:                                               ; preds = %37
  %41 = load ptr, ptr @stderr, align 8, !tbaa !31
  %42 = load ptr, ptr %6, align 8, !tbaa !33
  %43 = call i32 (ptr, ptr, ...) @fprintf(ptr noundef %41, ptr noundef @.str.33, ptr noundef %42) #5
  store i32 1, ptr %4, align 4
  store i32 1, ptr %9, align 4
  br label %47

44:                                               ; preds = %37, %34
  br label %45

45:                                               ; preds = %44, %33
  br label %46

46:                                               ; preds = %45
  store i32 0, ptr %4, align 4
  store i32 1, ptr %9, align 4
  br label %47

47:                                               ; preds = %46, %40, %27, %15
  call void @llvm.lifetime.end.p0(i64 8, ptr %8) #5
  %48 = load i32, ptr %4, align 4
  ret i32 %48
}

; Function Attrs: nounwind uwtable
define internal i32 @f_advection(double noundef %0, ptr noundef %1, ptr noundef %2, ptr noundef %3) #0 {
  %5 = alloca i32, align 4
  %6 = alloca double, align 8
  %7 = alloca ptr, align 8
  %8 = alloca ptr, align 8
  %9 = alloca ptr, align 8
  %10 = alloca ptr, align 8
  %11 = alloca ptr, align 8
  %12 = alloca i32, align 4
  %13 = alloca ptr, align 8
  %14 = alloca double, align 8
  %15 = alloca double, align 8
  %16 = alloca i64, align 8
  store double %0, ptr %6, align 8, !tbaa !4
  store ptr %1, ptr %7, align 8, !tbaa !22
  store ptr %2, ptr %8, align 8, !tbaa !22
  store ptr %3, ptr %9, align 8, !tbaa !24
  call void @llvm.lifetime.start.p0(i64 8, ptr %10) #5
  %17 = load ptr, ptr %9, align 8, !tbaa !24
  store ptr %17, ptr %10, align 8, !tbaa !24
  call void @llvm.lifetime.start.p0(i64 8, ptr %11) #5
  store ptr null, ptr %11, align 8, !tbaa !37
  %18 = load ptr, ptr %7, align 8, !tbaa !22
  %19 = call ptr @N_VGetArrayPointer(ptr noundef %18)
  store ptr %19, ptr %11, align 8, !tbaa !37
  %20 = load ptr, ptr %11, align 8, !tbaa !37
  %21 = call i32 @check_flag(ptr noundef %20, ptr noundef @.str.30, i32 noundef 0)
  %22 = icmp ne i32 %21, 0
  br i1 %22, label %23, label %24

23:                                               ; preds = %4
  store i32 1, ptr %5, align 4
  store i32 1, ptr %12, align 4
  br label %127

24:                                               ; preds = %4
  call void @llvm.lifetime.start.p0(i64 8, ptr %13) #5
  store ptr null, ptr %13, align 8, !tbaa !37
  %25 = load ptr, ptr %8, align 8, !tbaa !22
  %26 = call ptr @N_VGetArrayPointer(ptr noundef %25)
  store ptr %26, ptr %13, align 8, !tbaa !37
  %27 = load ptr, ptr %13, align 8, !tbaa !37
  %28 = call i32 @check_flag(ptr noundef %27, ptr noundef @.str.30, i32 noundef 0)
  %29 = icmp ne i32 %28, 0
  br i1 %29, label %30, label %31

30:                                               ; preds = %24
  store i32 1, ptr %5, align 4
  store i32 1, ptr %12, align 4
  br label %126

31:                                               ; preds = %24
  call void @llvm.lifetime.start.p0(i64 8, ptr %14) #5
  %32 = load ptr, ptr %10, align 8, !tbaa !24
  %33 = getelementptr inbounds nuw %struct.UserData, ptr %32, i32 0, i32 2
  %34 = load double, ptr %33, align 8, !tbaa !13
  %35 = load ptr, ptr %10, align 8, !tbaa !24
  %36 = getelementptr inbounds nuw %struct.UserData, ptr %35, i32 0, i32 1
  %37 = load double, ptr %36, align 8, !tbaa !12
  %38 = fmul double 4.000000e+00, %37
  %39 = fdiv double %34, %38
  store double %39, ptr %14, align 8, !tbaa !4
  call void @llvm.lifetime.start.p0(i64 8, ptr %15) #5
  %40 = load ptr, ptr %10, align 8, !tbaa !24
  %41 = getelementptr inbounds nuw %struct.UserData, ptr %40, i32 0, i32 5
  %42 = load double, ptr %41, align 8, !tbaa !16
  %43 = load ptr, ptr %10, align 8, !tbaa !24
  %44 = getelementptr inbounds nuw %struct.UserData, ptr %43, i32 0, i32 5
  %45 = load double, ptr %44, align 8, !tbaa !16
  %46 = fmul double %42, %45
  store double %46, ptr %15, align 8, !tbaa !4
  %47 = load double, ptr %14, align 8, !tbaa !4
  %48 = load ptr, ptr %11, align 8, !tbaa !37
  %49 = getelementptr inbounds double, ptr %48, i64 1
  %50 = load double, ptr %49, align 8, !tbaa !4
  %51 = load ptr, ptr %11, align 8, !tbaa !37
  %52 = getelementptr inbounds double, ptr %51, i64 1
  %53 = load double, ptr %52, align 8, !tbaa !4
  %54 = load double, ptr %15, align 8, !tbaa !4
  %55 = fneg double %54
  %56 = call double @llvm.fmuladd.f64(double %50, double %53, double %55)
  %57 = fmul double %47, %56
  %58 = load ptr, ptr %13, align 8, !tbaa !37
  %59 = getelementptr inbounds double, ptr %58, i64 0
  store double %57, ptr %59, align 8, !tbaa !4
  call void @llvm.lifetime.start.p0(i64 8, ptr %16) #5
  store i64 1, ptr %16, align 8, !tbaa !8
  br label %60

60:                                               ; preds = %97, %31
  %61 = load i64, ptr %16, align 8, !tbaa !8
  %62 = load ptr, ptr %10, align 8, !tbaa !24
  %63 = getelementptr inbounds nuw %struct.UserData, ptr %62, i32 0, i32 0
  %64 = load i64, ptr %63, align 8, !tbaa !10
  %65 = sub nsw i64 %64, 1
  %66 = icmp slt i64 %61, %65
  br i1 %66, label %68, label %67

67:                                               ; preds = %60
  store i32 2, ptr %12, align 4
  call void @llvm.lifetime.end.p0(i64 8, ptr %16) #5
  br label %100

68:                                               ; preds = %60
  %69 = load double, ptr %14, align 8, !tbaa !4
  %70 = load ptr, ptr %11, align 8, !tbaa !37
  %71 = load i64, ptr %16, align 8, !tbaa !8
  %72 = add nsw i64 %71, 1
  %73 = getelementptr inbounds double, ptr %70, i64 %72
  %74 = load double, ptr %73, align 8, !tbaa !4
  %75 = load ptr, ptr %11, align 8, !tbaa !37
  %76 = load i64, ptr %16, align 8, !tbaa !8
  %77 = add nsw i64 %76, 1
  %78 = getelementptr inbounds double, ptr %75, i64 %77
  %79 = load double, ptr %78, align 8, !tbaa !4
  %80 = load ptr, ptr %11, align 8, !tbaa !37
  %81 = load i64, ptr %16, align 8, !tbaa !8
  %82 = sub nsw i64 %81, 1
  %83 = getelementptr inbounds double, ptr %80, i64 %82
  %84 = load double, ptr %83, align 8, !tbaa !4
  %85 = load ptr, ptr %11, align 8, !tbaa !37
  %86 = load i64, ptr %16, align 8, !tbaa !8
  %87 = sub nsw i64 %86, 1
  %88 = getelementptr inbounds double, ptr %85, i64 %87
  %89 = load double, ptr %88, align 8, !tbaa !4
  %90 = fmul double %84, %89
  %91 = fneg double %90
  %92 = call double @llvm.fmuladd.f64(double %74, double %79, double %91)
  %93 = fmul double %69, %92
  %94 = load ptr, ptr %13, align 8, !tbaa !37
  %95 = load i64, ptr %16, align 8, !tbaa !8
  %96 = getelementptr inbounds double, ptr %94, i64 %95
  store double %93, ptr %96, align 8, !tbaa !4
  br label %97

97:                                               ; preds = %68
  %98 = load i64, ptr %16, align 8, !tbaa !8
  %99 = add nsw i64 %98, 1
  store i64 %99, ptr %16, align 8, !tbaa !8
  br label %60

100:                                              ; preds = %67
  %101 = load double, ptr %14, align 8, !tbaa !4
  %102 = load double, ptr %15, align 8, !tbaa !4
  %103 = load ptr, ptr %11, align 8, !tbaa !37
  %104 = load ptr, ptr %10, align 8, !tbaa !24
  %105 = getelementptr inbounds nuw %struct.UserData, ptr %104, i32 0, i32 0
  %106 = load i64, ptr %105, align 8, !tbaa !10
  %107 = sub nsw i64 %106, 1
  %108 = getelementptr inbounds double, ptr %103, i64 %107
  %109 = load double, ptr %108, align 8, !tbaa !4
  %110 = load ptr, ptr %11, align 8, !tbaa !37
  %111 = load ptr, ptr %10, align 8, !tbaa !24
  %112 = getelementptr inbounds nuw %struct.UserData, ptr %111, i32 0, i32 0
  %113 = load i64, ptr %112, align 8, !tbaa !10
  %114 = sub nsw i64 %113, 1
  %115 = getelementptr inbounds double, ptr %110, i64 %114
  %116 = load double, ptr %115, align 8, !tbaa !4
  %117 = fneg double %109
  %118 = call double @llvm.fmuladd.f64(double %117, double %116, double %102)
  %119 = fmul double %101, %118
  %120 = load ptr, ptr %13, align 8, !tbaa !37
  %121 = load ptr, ptr %10, align 8, !tbaa !24
  %122 = getelementptr inbounds nuw %struct.UserData, ptr %121, i32 0, i32 0
  %123 = load i64, ptr %122, align 8, !tbaa !10
  %124 = sub nsw i64 %123, 1
  %125 = getelementptr inbounds double, ptr %120, i64 %124
  store double %119, ptr %125, align 8, !tbaa !4
  store i32 0, ptr %5, align 4
  store i32 1, ptr %12, align 4
  call void @llvm.lifetime.end.p0(i64 8, ptr %15) #5
  call void @llvm.lifetime.end.p0(i64 8, ptr %14) #5
  br label %126

126:                                              ; preds = %100, %30
  call void @llvm.lifetime.end.p0(i64 8, ptr %13) #5
  br label %127

127:                                              ; preds = %126, %23
  call void @llvm.lifetime.end.p0(i64 8, ptr %11) #5
  call void @llvm.lifetime.end.p0(i64 8, ptr %10) #5
  %128 = load i32, ptr %5, align 4
  ret i32 %128
}