; Function Attrs: nounwind uwtable
define internal range(i32 0, 2) i32 @f_advection(double %0, ptr noundef %1, ptr noundef %2, ptr noundef readonly captures(none) %3) #0 {
  %5 = tail call ptr @N_VGetArrayPointer(ptr noundef %1) #8
  %6 = icmp eq ptr %5, null
  br i1 %6, label %check_flag.exit, label %9

check_flag.exit:                                  ; preds = %4
  %7 = load ptr, ptr @stderr, align 8, !tbaa !15
  %8 = tail call i32 (ptr, ptr, ...) @fprintf(ptr noundef %7, ptr noundef nonnull @.str.31, ptr noundef nonnull @.str.30) #9
  br label %47

9:                                                ; preds = %4
  %10 = tail call ptr @N_VGetArrayPointer(ptr noundef %2) #8
  %11 = icmp eq ptr %10, null
  br i1 %11, label %check_flag.exit40, label %14

check_flag.exit40:                                ; preds = %9
  %12 = load ptr, ptr @stderr, align 8, !tbaa !15
  %13 = tail call i32 (ptr, ptr, ...) @fprintf(ptr noundef %12, ptr noundef nonnull @.str.31, ptr noundef nonnull @.str.30) #9
  br label %47

14:                                               ; preds = %9
  %15 = getelementptr inbounds nuw i8, ptr %3, i64 16
  %16 = load double, ptr %15, align 8, !tbaa !11
  %17 = getelementptr inbounds nuw i8, ptr %3, i64 8
  %18 = load double, ptr %17, align 8, !tbaa !10
  %19 = fmul double %18, 4.000000e+00
  %20 = fdiv double %16, %19
  %21 = getelementptr inbounds nuw i8, ptr %3, i64 40
  %22 = load double, ptr %21, align 8, !tbaa !14
  %23 = fmul double %22, %22
  %24 = getelementptr inbounds nuw i8, ptr %5, i64 8
  %25 = load double, ptr %24, align 8, !tbaa !23
  %26 = fneg double %23
  %27 = tail call double @llvm.fmuladd.f64(double %25, double %25, double %26)
  %28 = fmul double %20, %27
  store double %28, ptr %10, align 8, !tbaa !23
  %29 = load i64, ptr %3, align 8, !tbaa !4
  %30 = add i64 %29, -1
  %invariant.gep = getelementptr i8, ptr %5, i64 -8
  %31 = icmp sgt i64 %29, 2
  br i1 %31, label %.lr.ph, label %._crit_edge

._crit_edge:                                      ; preds = %.lr.ph, %14
  %32 = getelementptr inbounds double, ptr %5, i64 %30
  %33 = load double, ptr %32, align 8, !tbaa !23
  %34 = fneg double %33
  %35 = tail call double @llvm.fmuladd.f64(double %34, double %33, double %23)
  %36 = fmul double %20, %35
  %37 = getelementptr inbounds double, ptr %10, i64 %30
  store double %36, ptr %37, align 8, !tbaa !23
  br label %47

.lr.ph:                                           ; preds = %14, %.lr.ph
  %.045 = phi i64 [ %38, %.lr.ph ], [ 1, %14 ]
  %38 = add nuw nsw i64 %.045, 1
  %39 = getelementptr inbounds nuw double, ptr %5, i64 %38
  %40 = load double, ptr %39, align 8, !tbaa !23
  %gep = getelementptr double, ptr %invariant.gep, i64 %.045
  %41 = load double, ptr %gep, align 8, !tbaa !23
  %42 = fneg double %41
  %43 = fmul double %41, %42
  %44 = tail call double @llvm.fmuladd.f64(double %40, double %40, double %43)
  %45 = fmul double %20, %44
  %46 = getelementptr inbounds nuw double, ptr %10, i64 %.045
  store double %45, ptr %46, align 8, !tbaa !23
  %exitcond.not = icmp eq i64 %38, %30
  br i1 %exitcond.not, label %._crit_edge, label %.lr.ph

47:                                               ; preds = %check_flag.exit40, %check_flag.exit, %._crit_edge
  %.036 = phi i32 [ 1, %check_flag.exit ], [ 0, %._crit_edge ], [ 1, %check_flag.exit40 ]
  ret i32 %.036
}